target datalayout = "e-m:e-p270:32:32-p271:32:32-p272:64:64-i64:64-i128:128-f80:128-n8:16:32:64-S128"
target triple = "x86_64-pc-linux-gnu"

%struct.lv_area_t = type { i32, i32, i32, i32 }

; Function Attrs: nounwind uwtable
define zeroext i1 @lv_area_intersect(ptr noundef %0, ptr noundef %1, ptr noundef %2) #0 {
  %4 = alloca ptr, align 8
  %5 = alloca ptr, align 8
  %6 = alloca ptr, align 8
  %7 = alloca i8, align 1
  store ptr %0, ptr %4, align 8, !tbaa !3
  store ptr %1, ptr %5, align 8, !tbaa !3
  store ptr %2, ptr %6, align 8, !tbaa !3
  %8 = load ptr, ptr %5, align 8, !tbaa !3
  %9 = getelementptr inbounds nuw %struct.lv_area_t, ptr %8, i32 0, i32 0
  %10 = load i32, ptr %9, align 4, !tbaa !9
  %11 = load ptr, ptr %6, align 8, !tbaa !3
  %12 = getelementptr inbounds nuw %struct.lv_area_t, ptr %11, i32 0, i32 0
  %13 = load i32, ptr %12, align 4, !tbaa !9
  %14 = icmp sgt i32 %10, %13
  br i1 %14, label %15, label %19

15:                                               ; preds = %3
  %16 = load ptr, ptr %5, align 8, !tbaa !3
  %17 = getelementptr inbounds nuw %struct.lv_area_t, ptr %16, i32 0, i32 0
  %18 = load i32, ptr %17, align 4, !tbaa !9
  br label %23

19:                                               ; preds = %3
  %20 = load ptr, ptr %6, align 8, !tbaa !3
  %21 = getelementptr inbounds nuw %struct.lv_area_t, ptr %20, i32 0, i32 0
  %22 = load i32, ptr %21, align 4, !tbaa !9
  br label %23

23:                                               ; preds = %19, %15
  %24 = phi i32 [ %18, %15 ], [ %22, %19 ]
  %25 = load ptr, ptr %4, align 8, !tbaa !3
  %26 = getelementptr inbounds nuw %struct.lv_area_t, ptr %25, i32 0, i32 0
  store i32 %24, ptr %26, align 4, !tbaa !9
  %27 = load ptr, ptr %5, align 8, !tbaa !3
  %28 = getelementptr inbounds nuw %struct.lv_area_t, ptr %27, i32 0, i32 1
  %29 = load i32, ptr %28, align 4, !tbaa !11
  %30 = load ptr, ptr %6, align 8, !tbaa !3
  %31 = getelementptr inbounds nuw %struct.lv_area_t, ptr %30, i32 0, i32 1
  %32 = load i32, ptr %31, align 4, !tbaa !11
  %33 = icmp sgt i32 %29, %32
  br i1 %33, label %34, label %38

34:                                               ; preds = %23
  %35 = load ptr, ptr %5, align 8, !tbaa !3
  %36 = getelementptr inbounds nuw %struct.lv_area_t, ptr %35, i32 0, i32 1
  %37 = load i32, ptr %36, align 4, !tbaa !11
  br label %42

38:                                               ; preds = %23
  %39 = load ptr, ptr %6, align 8, !tbaa !3
  %40 = getelementptr inbounds nuw %struct.lv_area_t, ptr %39, i32 0, i32 1
  %41 = load i32, ptr %40, align 4, !tbaa !11
  br label %42

42:                                               ; preds = %38, %34
  %43 = phi i32 [ %37, %34 ], [ %41, %38 ]
  %44 = load ptr, ptr %4, align 8, !tbaa !3
  %45 = getelementptr inbounds nuw %struct.lv_area_t, ptr %44, i32 0, i32 1
  store i32 %43, ptr %45, align 4, !tbaa !11
  %46 = load ptr, ptr %5, align 8, !tbaa !3
  %47 = getelementptr inbounds nuw %struct.lv_area_t, ptr %46, i32 0, i32 2
  %48 = load i32, ptr %47, align 4, !tbaa !12
  %49 = load ptr, ptr %6, align 8, !tbaa !3
  %50 = getelementptr inbounds nuw %struct.lv_area_t, ptr %49, i32 0, i32 2
  %51 = load i32, ptr %50, align 4, !tbaa !12
  %52 = icmp slt i32 %48, %51
  br i1 %52, label %53, label %57

53:                                               ; preds = %42
  %54 = load ptr, ptr %5, align 8, !tbaa !3
  %55 = getelementptr inbounds nuw %struct.lv_area_t, ptr %54, i32 0, i32 2
  %56 = load i32, ptr %55, align 4, !tbaa !12
  br label %61

57:                                               ; preds = %42
  %58 = load ptr, ptr %6, align 8, !tbaa !3
  %59 = getelementptr inbounds nuw %struct.lv_area_t, ptr %58, i32 0, i32 2
  %60 = load i32, ptr %59, align 4, !tbaa !12
  br label %61

61:                                               ; preds = %57, %53
  %62 = phi i32 [ %56, %53 ], [ %60, %57 ]
  %63 = load ptr, ptr %4, align 8, !tbaa !3
  %64 = getelementptr inbounds nuw %struct.lv_area_t, ptr %63, i32 0, i32 2
  store i32 %62, ptr %64, align 4, !tbaa !12
  %65 = load ptr, ptr %5, align 8, !tbaa !3
  %66 = getelementptr inbounds nuw %struct.lv_area_t, ptr %65, i32 0, i32 3
  %67 = load i32, ptr %66, align 4, !tbaa !13
  %68 = load ptr, ptr %6, align 8, !tbaa !3
  %69 = getelementptr inbounds nuw %struct.lv_area_t, ptr %68, i32 0, i32 3
  %70 = load i32, ptr %69, align 4, !tbaa !13
  %71 = icmp slt i32 %67, %70
  br i1 %71, label %72, label %76

72:                                               ; preds = %61
  %73 = load ptr, ptr %5, align 8, !tbaa !3
  %74 = getelementptr inbounds nuw %struct.lv_area_t, ptr %73, i32 0, i32 3
  %75 = load i32, ptr %74, align 4, !tbaa !13
  br label %80

76:                                               ; preds = %61
  %77 = load ptr, ptr %6, align 8, !tbaa !3
  %78 = getelementptr inbounds nuw %struct.lv_area_t, ptr %77, i32 0, i32 3
  %79 = load i32, ptr %78, align 4, !tbaa !13
  br label %80

80:                                               ; preds = %76, %72
  %81 = phi i32 [ %75, %72 ], [ %79, %76 ]
  %82 = load ptr, ptr %4, align 8, !tbaa !3
  %83 = getelementptr inbounds nuw %struct.lv_area_t, ptr %82, i32 0, i32 3
  store i32 %81, ptr %83, align 4, !tbaa !13
  call void @llvm.lifetime.start.p0(i64 1, ptr %7) #5
  store i8 1, ptr %7, align 1, !tbaa !14
  %84 = load ptr, ptr %4, align 8, !tbaa !3
  %85 = getelementptr inbounds nuw %struct.lv_area_t, ptr %84, i32 0, i32 0
  %86 = load i32, ptr %85, align 4, !tbaa !9
  %87 = load ptr, ptr %4, align 8, !tbaa !3
  %88 = getelementptr inbounds nuw %struct.lv_area_t, ptr %87, i32 0, i32 2
  %89 = load i32, ptr %88, align 4, !tbaa !12
  %90 = icmp sgt i32 %86, %89
  br i1 %90, label %99, label %91

91:                                               ; preds = %80
  %92 = load ptr, ptr %4, align 8, !tbaa !3
  %93 = getelementptr inbounds nuw %struct.lv_area_t, ptr %92, i32 0, i32 1
  %94 = load i32, ptr %93, align 4, !tbaa !11
  %95 = load ptr, ptr %4, align 8, !tbaa !3
  %96 = getelementptr inbounds nuw %struct.lv_area_t, ptr %95, i32 0, i32 3
  %97 = load i32, ptr %96, align 4, !tbaa !13
  %98 = icmp sgt i32 %94, %97
  br i1 %98, label %99, label %100

99:                                               ; preds = %91, %80
  store i8 0, ptr %7, align 1, !tbaa !14
  br label %100

100:                                              ; preds = %99, %91
  %101 = load i8, ptr %7, align 1, !tbaa !14, !range !16, !noundef !17
  %102 = trunc i8 %101 to i1
  call void @llvm.lifetime.end.p0(i64 1, ptr %7) #5
  ret i1 %102
}